target datalayout = "e-m:e-p270:32:32-p271:32:32-p272:64:64-i64:64-i128:128-f80:128-n8:16:32:64-S128"
target triple = "x86_64-pc-linux-gnu"

%"class.icu_77::UObject" = type { ptr }
%"class.icu_77::SimpleFilteredBreakIteratorBuilder" = type { %"class.icu_77::FilteredBreakIteratorBuilder", %"class.icu_77::UStringSet" }
%"class.icu_77::FilteredBreakIteratorBuilder" = type { %"class.icu_77::UObject" }
%"class.icu_77::UStringSet" = type { %"class.icu_77::UVector" }
%"class.icu_77::UVector" = type { %"class.icu_77::UObject", i32, i32, ptr, ptr, ptr }

; Function Attrs: inlinehint mustprogress uwtable
define linkonce_odr noundef signext i8 @_ZNK6icu_777UVector8containsEPv(ptr noundef nonnull align 8 dereferenceable(40) %0, ptr noundef %1) #7 comdat align 2 {
  %3 = alloca ptr, align 8
  %4 = alloca ptr, align 8
  store ptr %0, ptr %3, align 8, !tbaa !94
  store ptr %1, ptr %4, align 8, !tbaa !40
  %5 = load ptr, ptr %3, align 8
  %6 = load ptr, ptr %4, align 8, !tbaa !40
  %7 = call noundef i32 @_ZNK6icu_777UVector7indexOfEPvi(ptr noundef nonnull align 8 dereferenceable(40) %5, ptr noundef %6, i32 noundef 0)
  %8 = icmp sge i32 %7, 0
  %9 = zext i1 %8 to i8
  ret i8 %9
}

; Function Attrs: inlinehint mustprogress uwtable
define linkonce_odr noundef signext i8 @_ZN6icu_7710UStringSet8containsERKNS_13UnicodeStringE(ptr noundef nonnull align 8 dereferenceable(40) %0, ptr noundef nonnull align 8 dereferenceable(64) %1) #7 comdat align 2 {
  %3 = alloca ptr, align 8
  %4 = alloca ptr, align 8
  store ptr %0, ptr %3, align 8, !tbaa !3
  store ptr %1, ptr %4, align 8, !tbaa !83
  %5 = load ptr, ptr %3, align 8
  %6 = load ptr, ptr %4, align 8, !tbaa !83
  %7 = call noundef signext i8 @_ZNK6icu_777UVector8containsEPv(ptr noundef nonnull align 8 dereferenceable(40) %5, ptr noundef %6)
  ret i8 %7
}

; Function Attrs: inlinehint mustprogress uwtable
define linkonce_odr noundef signext i8 @_ZN6icu_7710UStringSet5adoptEPNS_13UnicodeStringER10UErrorCode(ptr noundef nonnull align 8 dereferenceable(40) %0, ptr noundef %1, ptr noundef nonnull align 4 dereferenceable(4) %2) #7 comdat align 2 {
  %4 = alloca i8, align 1
  %5 = alloca ptr, align 8
  %6 = alloca ptr, align 8
  %7 = alloca ptr, align 8
  store ptr %0, ptr %5, align 8, !tbaa !3
  store ptr %1, ptr %6, align 8, !tbaa !83
  store ptr %2, ptr %7, align 8, !tbaa !40
  %8 = load ptr, ptr %5, align 8
  %9 = load ptr, ptr %7, align 8, !tbaa !40
  %10 = load i32, ptr %9, align 4, !tbaa !41
  %11 = call noundef signext i8 @_ZL9U_FAILURE10UErrorCode(i32 noundef %10)
  %12 = icmp ne i8 %11, 0
  br i1 %12, label %17, label %13

13:                                               ; preds = %3
  %14 = load ptr, ptr %6, align 8, !tbaa !83
  %15 = call noundef signext i8 @_ZN6icu_7710UStringSet8containsERKNS_13UnicodeStringE(ptr noundef nonnull align 8 dereferenceable(40) %8, ptr noundef nonnull align 8 dereferenceable(64) %14)
  %16 = icmp ne i8 %15, 0
  br i1 %16, label %17, label %25

17:                                               ; preds = %13, %3
  %18 = load ptr, ptr %6, align 8, !tbaa !83
  %19 = icmp eq ptr %18, null
  br i1 %19, label %24, label %20

20:                                               ; preds = %17
  %21 = load ptr, ptr %18, align 8, !tbaa !10
  %22 = getelementptr inbounds ptr, ptr %21, i64 1
  %23 = load ptr, ptr %22, align 8
  call void %23(ptr noundef nonnull align 8 dereferenceable(64) %18) #13
  br label %24

24:                                               ; preds = %20, %17
  store i8 0, ptr %4, align 1
  br label %34

25:                                               ; preds = %13
  %26 = load ptr, ptr %6, align 8, !tbaa !83
  %27 = load ptr, ptr %7, align 8, !tbaa !40
  call void @_ZN6icu_777UVector12sortedInsertEPvPFi8UElementS2_ER10UErrorCode(ptr noundef nonnull align 8 dereferenceable(40) %8, ptr noundef %26, ptr noundef @_ZN6icu_77L20compareUnicodeStringE8UElementS0_, ptr noundef nonnull align 4 dereferenceable(4) %27)
  %28 = load ptr, ptr %7, align 8, !tbaa !40
  %29 = load i32, ptr %28, align 4, !tbaa !41
  %30 = call noundef signext i8 @_ZL9U_FAILURE10UErrorCode(i32 noundef %29)
  %31 = icmp ne i8 %30, 0
  br i1 %31, label %32, label %33

32:                                               ; preds = %25
  store i8 0, ptr %4, align 1
  br label %34

33:                                               ; preds = %25
  store i8 1, ptr %4, align 1
  br label %34

34:                                               ; preds = %33, %32, %24
  %35 = load i8, ptr %4, align 1
  ret i8 %35
}

; Function Attrs: inlinehint mustprogress nounwind uwtable
define internal noundef signext i8 @_ZL9U_FAILURE10UErrorCode(i32 noundef %0) #5 {
  %2 = alloca i32, align 4
  store i32 %0, ptr %2, align 4, !tbaa !41
  %3 = load i32, ptr %2, align 4, !tbaa !41
  %4 = icmp sgt i32 %3, 0
  %5 = zext i1 %4 to i8
  ret i8 %5
}

; Function Attrs: inlinehint mustprogress uwtable
define linkonce_odr noundef signext i8 @_ZN6icu_7710UStringSet3addERKNS_13UnicodeStringER10UErrorCode(ptr noundef nonnull align 8 dereferenceable(40) %0, ptr noundef nonnull align 8 dereferenceable(64) %1, ptr noundef nonnull align 4 dereferenceable(4) %2) #7 comdat align 2 personality ptr @__gxx_personality_v0 {
  %4 = alloca i8, align 1
  %5 = alloca ptr, align 8
  %6 = alloca ptr, align 8
  %7 = alloca ptr, align 8
  %8 = alloca ptr, align 8
  %9 = alloca ptr, align 8
  %10 = alloca i1, align 1
  %11 = alloca ptr, align 8
  %12 = alloca i32, align 4
  %13 = alloca i32, align 4
  store ptr %0, ptr %5, align 8, !tbaa !3
  store ptr %1, ptr %6, align 8, !tbaa !83
  store ptr %2, ptr %7, align 8, !tbaa !40
  %14 = load ptr, ptr %5, align 8
  %15 = load ptr, ptr %7, align 8, !tbaa !40
  %16 = load i32, ptr %15, align 4, !tbaa !41
  %17 = call noundef signext i8 @_ZL9U_FAILURE10UErrorCode(i32 noundef %16)
  %18 = icmp ne i8 %17, 0
  br i1 %18, label %19, label %20

19:                                               ; preds = %3
  store i8 0, ptr %4, align 1
  br label %45

20:                                               ; preds = %3
  call void @llvm.lifetime.start.p0(i64 8, ptr %8) #13
  %21 = call noundef ptr @_ZN6icu_777UMemorynwEm(i64 noundef 64) #13
  %22 = icmp eq ptr %21, null
  store i1 false, ptr %10, align 1
  br i1 %22, label %26, label %23

23:                                               ; preds = %20
  store ptr %21, ptr %9, align 8
  store i1 true, ptr %10, align 1
  %24 = load ptr, ptr %6, align 8, !tbaa !83
  invoke void @_ZN6icu_7713UnicodeStringC1ERKS0_(ptr noundef nonnull align 8 dereferenceable(64) %21, ptr noundef nonnull align 8 dereferenceable(64) %24)
          to label %25 unwind label %32

25:                                               ; preds = %23
  br label %26

26:                                               ; preds = %25, %20
  %27 = phi ptr [ %21, %25 ], [ null, %20 ]
  store ptr %27, ptr %8, align 8, !tbaa !83
  %28 = load ptr, ptr %8, align 8, !tbaa !83
  %29 = icmp eq ptr %28, null
  br i1 %29, label %30, label %40

30:                                               ; preds = %26
  %31 = load ptr, ptr %7, align 8, !tbaa !40
  store i32 7, ptr %31, align 4, !tbaa !41
  store i8 0, ptr %4, align 1
  store i32 1, ptr %13, align 4
  br label %44

32:                                               ; preds = %23
  %33 = landingpad { ptr, i32 }
          cleanup
  %34 = extractvalue { ptr, i32 } %33, 0
  store ptr %34, ptr %11, align 8
  %35 = extractvalue { ptr, i32 } %33, 1
  store i32 %35, ptr %12, align 4
  %36 = load i1, ptr %10, align 1
  br i1 %36, label %37, label %39

37:                                               ; preds = %32
  %38 = load ptr, ptr %9, align 8
  call void @_ZN6icu_777UMemorydlEPv(ptr noundef %38) #13
  br label %39

39:                                               ; preds = %37, %32
  call void @llvm.lifetime.end.p0(i64 8, ptr %8) #13
  br label %47

40:                                               ; preds = %26
  %41 = load ptr, ptr %8, align 8, !tbaa !83
  %42 = load ptr, ptr %7, align 8, !tbaa !40
  %43 = call noundef signext i8 @_ZN6icu_7710UStringSet5adoptEPNS_13UnicodeStringER10UErrorCode(ptr noundef nonnull align 8 dereferenceable(40) %14, ptr noundef %41, ptr noundef nonnull align 4 dereferenceable(4) %42)
  store i8 %43, ptr %4, align 1
  store i32 1, ptr %13, align 4
  br label %44

44:                                               ; preds = %40, %30
  call void @llvm.lifetime.end.p0(i64 8, ptr %8) #13
  br label %45

45:                                               ; preds = %44, %19
  %46 = load i8, ptr %4, align 1
  ret i8 %46

47:                                               ; preds = %39
  %48 = load ptr, ptr %11, align 8
  %49 = load i32, ptr %12, align 4
  %50 = insertvalue { ptr, i32 } poison, ptr %48, 0
  %51 = insertvalue { ptr, i32 } %50, i32 %49, 1
  resume { ptr, i32 } %51
}

; Function Attrs: mustprogress uwtable
define noundef signext i8 @_ZN6icu_7734SimpleFilteredBreakIteratorBuilder18suppressBreakAfterERKNS_13UnicodeStringER10UErrorCode(ptr noundef nonnull align 8 dereferenceable(48) %0, ptr noundef nonnull align 8 dereferenceable(64) %1, ptr noundef nonnull align 4 dereferenceable(4) %2) unnamed_addr #2 align 2 {
  %4 = alloca ptr, align 8
  %5 = alloca ptr, align 8
  %6 = alloca ptr, align 8
  %7 = alloca i8, align 1
  store ptr %0, ptr %4, align 8, !tbaa !68
  store ptr %1, ptr %5, align 8, !tbaa !83
  store ptr %2, ptr %6, align 8, !tbaa !40
  %8 = load ptr, ptr %4, align 8
  call void @llvm.lifetime.start.p0(i64 1, ptr %7) #13
  %9 = getelementptr inbounds nuw %"class.icu_77::SimpleFilteredBreakIteratorBuilder", ptr %8, i32 0, i32 1
  %10 = load ptr, ptr %5, align 8, !tbaa !83
  %11 = load ptr, ptr %6, align 8, !tbaa !40
  %12 = call noundef signext i8 @_ZN6icu_7710UStringSet3addERKNS_13UnicodeStringER10UErrorCode(ptr noundef nonnull align 8 dereferenceable(40) %9, ptr noundef nonnull align 8 dereferenceable(64) %10, ptr noundef nonnull align 4 dereferenceable(4) %11)
  store i8 %12, ptr %7, align 1, !tbaa !85
  %13 = load i8, ptr %7, align 1, !tbaa !85
  call void @llvm.lifetime.end.p0(i64 1, ptr %7) #13
  ret i8 %13
}