; Function Attrs: mustprogress uwtable
define noundef signext range(i8 0, 2) i8 @_ZN6icu_7734SimpleFilteredBreakIteratorBuilder18suppressBreakAfterERKNS_13UnicodeStringER10UErrorCode(ptr noundef nonnull align 8 dereferenceable(48) %0, ptr noundef nonnull align 8 dereferenceable(64) %1, ptr noundef nonnull align 4 dereferenceable(4) %2) unnamed_addr #2 align 2 personality ptr @__gxx_personality_v0 {
  %4 = getelementptr inbounds nuw i8, ptr %0, i64 8
  %5 = load i32, ptr %2, align 4, !tbaa !28
  %6 = icmp slt i32 %5, 1
  br i1 %6, label %7, label %_ZN6icu_7710UStringSet3addERKNS_13UnicodeStringER10UErrorCode.exit

7:                                                ; preds = %3
  %8 = tail call noundef ptr @_ZN6icu_777UMemorynwEm(i64 noundef 64) #14
  %9 = icmp eq ptr %8, null
  br i1 %9, label %11, label %10

10:                                               ; preds = %7
  invoke void @_ZN6icu_7713UnicodeStringC1ERKS0_(ptr noundef nonnull align 8 dereferenceable(64) %8, ptr noundef nonnull align 8 dereferenceable(64) %1)
          to label %14 unwind label %12

11:                                               ; preds = %7
  store i32 7, ptr %2, align 4, !tbaa !28
  br label %_ZN6icu_7710UStringSet3addERKNS_13UnicodeStringER10UErrorCode.exit

12:                                               ; preds = %10
  %13 = landingpad { ptr, i32 }
          cleanup
  tail call void @_ZN6icu_777UMemorydlEPv(ptr noundef nonnull %8) #14
  resume { ptr, i32 } %13

14:                                               ; preds = %10
  %15 = load i32, ptr %2, align 4, !tbaa !28
  %16 = icmp slt i32 %15, 1
  br i1 %16, label %17, label %.thread.i.i

17:                                               ; preds = %14
  %18 = tail call noundef i32 @_ZNK6icu_777UVector7indexOfEPvi(ptr noundef nonnull align 8 dereferenceable(40) %4, ptr noundef nonnull align 8 dereferenceable(64) %8, i32 noundef 0)
  %19 = icmp slt i32 %18, 0
  br i1 %19, label %23, label %.thread.i.i

.thread.i.i:                                      ; preds = %17, %14
  %20 = load ptr, ptr %8, align 8, !tbaa !3
  %21 = getelementptr inbounds nuw i8, ptr %20, i64 8
  %22 = load ptr, ptr %21, align 8
  tail call void %22(ptr noundef nonnull align 8 dereferenceable(64) %8) #14
  br label %_ZN6icu_7710UStringSet3addERKNS_13UnicodeStringER10UErrorCode.exit

23:                                               ; preds = %17
  tail call void @_ZN6icu_777UVector12sortedInsertEPvPFi8UElementS2_ER10UErrorCode(ptr noundef nonnull align 8 dereferenceable(40) %4, ptr noundef nonnull %8, ptr noundef nonnull @_ZN6icu_77L20compareUnicodeStringE8UElementS0_, ptr noundef nonnull align 4 dereferenceable(4) %2)
  %24 = load i32, ptr %2, align 4, !tbaa !28
  %25 = icmp slt i32 %24, 1
  %..i.i = zext i1 %25 to i8
  br label %_ZN6icu_7710UStringSet3addERKNS_13UnicodeStringER10UErrorCode.exit

_ZN6icu_7710UStringSet3addERKNS_13UnicodeStringER10UErrorCode.exit: ; preds = %3, %11, %.thread.i.i, %23
  %.0.i = phi i8 [ 0, %3 ], [ 0, %11 ], [ 0, %.thread.i.i ], [ %..i.i, %23 ]
  ret i8 %.0.i
}